target datalayout = "e-m:e-p270:32:32-p271:32:32-p272:64:64-i64:64-i128:128-f80:128-n8:16:32:64-S128"
target triple = "x86_64-pc-linux-gnu"

%"struct.boost::urls::detail::url_impl" = type <{ ptr, [8 x i64], [7 x i64], i64, i64, [16 x i8], i16, [2 x i8], i32, i16, i8, [5 x i8] }>

; Function Attrs: mustprogress nounwind uwtable
define noundef i64 @_ZNK5boost4urls6detail8url_impl6offsetEi(ptr noundef nonnull align 8 dereferenceable(171) %0, i32 noundef %1) #1 align 2 {
  %3 = alloca ptr, align 8
  %4 = alloca i32, align 4
  store ptr %0, ptr %3, align 8, !tbaa !3
  store i32 %1, ptr %4, align 4, !tbaa !16
  %5 = load ptr, ptr %3, align 8
  %6 = load i32, ptr %4, align 4, !tbaa !16
  %7 = icmp eq i32 %6, -1
  br i1 %7, label %8, label %9

8:                                                ; preds = %2
  br label %15

9:                                                ; preds = %2
  %10 = getelementptr inbounds nuw %"struct.boost::urls::detail::url_impl", ptr %5, i32 0, i32 1
  %11 = load i32, ptr %4, align 4, !tbaa !16
  %12 = sext i32 %11 to i64
  %13 = getelementptr inbounds [8 x i64], ptr %10, i64 0, i64 %12
  %14 = load i64, ptr %13, align 8, !tbaa !8
  br label %15

15:                                               ; preds = %9, %8
  %16 = phi i64 [ 0, %8 ], [ %14, %9 ]
  ret i64 %16
}

; Function Attrs: mustprogress nounwind uwtable
define noundef i64 @_ZNK5boost4urls6detail8url_impl3lenEi(ptr noundef nonnull align 8 dereferenceable(171) %0, i32 noundef %1) #1 align 2 {
  %3 = alloca ptr, align 8
  %4 = alloca i32, align 4
  store ptr %0, ptr %3, align 8, !tbaa !3
  store i32 %1, ptr %4, align 4, !tbaa !16
  %5 = load ptr, ptr %3, align 8
  %6 = load i32, ptr %4, align 4, !tbaa !16
  %7 = icmp eq i32 %6, 7
  br i1 %7, label %8, label %9

8:                                                ; preds = %2
  br label %16

9:                                                ; preds = %2
  %10 = load i32, ptr %4, align 4, !tbaa !16
  %11 = add nsw i32 %10, 1
  %12 = call noundef i64 @_ZNK5boost4urls6detail8url_impl6offsetEi(ptr noundef nonnull align 8 dereferenceable(171) %5, i32 noundef %11) #5
  %13 = load i32, ptr %4, align 4, !tbaa !16
  %14 = call noundef i64 @_ZNK5boost4urls6detail8url_impl6offsetEi(ptr noundef nonnull align 8 dereferenceable(171) %5, i32 noundef %13) #5
  %15 = sub i64 %12, %14
  br label %16

16:                                               ; preds = %9, %8
  %17 = phi i64 [ 0, %8 ], [ %15, %9 ]
  ret i64 %17
}

; Function Attrs: mustprogress nounwind uwtable
define void @_ZN5boost4urls6detail8url_impl8set_sizeEim(ptr noundef nonnull align 8 dereferenceable(171) %0, i32 noundef %1, i64 noundef %2) #1 align 2 {
  %4 = alloca ptr, align 8
  %5 = alloca i32, align 4
  %6 = alloca i64, align 8
  %7 = alloca i64, align 8
  %8 = alloca i32, align 4
  store ptr %0, ptr %4, align 8, !tbaa !3
  store i32 %1, ptr %5, align 4, !tbaa !16
  store i64 %2, ptr %6, align 8, !tbaa !8
  %9 = load ptr, ptr %4, align 8
  call void @llvm.lifetime.start.p0(i64 8, ptr %7) #5
  %10 = load i64, ptr %6, align 8, !tbaa !8
  %11 = load i32, ptr %5, align 4, !tbaa !16
  %12 = call noundef i64 @_ZNK5boost4urls6detail8url_impl3lenEi(ptr noundef nonnull align 8 dereferenceable(171) %9, i32 noundef %11) #5
  %13 = sub i64 %10, %12
  store i64 %13, ptr %7, align 8, !tbaa !8
  call void @llvm.lifetime.start.p0(i64 4, ptr %8) #5
  %14 = load i32, ptr %5, align 4, !tbaa !16
  %15 = add nsw i32 %14, 1
  store i32 %15, ptr %8, align 4, !tbaa !16
  br label %16

16:                                               ; preds = %28, %3
  %17 = load i32, ptr %8, align 4, !tbaa !16
  %18 = icmp sle i32 %17, 7
  br i1 %18, label %20, label %19

19:                                               ; preds = %16
  call void @llvm.lifetime.end.p0(i64 4, ptr %8) #5
  br label %31

20:                                               ; preds = %16
  %21 = load i64, ptr %7, align 8, !tbaa !8
  %22 = getelementptr inbounds nuw %"struct.boost::urls::detail::url_impl", ptr %9, i32 0, i32 1
  %23 = load i32, ptr %8, align 4, !tbaa !16
  %24 = sext i32 %23 to i64
  %25 = getelementptr inbounds [8 x i64], ptr %22, i64 0, i64 %24
  %26 = load i64, ptr %25, align 8, !tbaa !8
  %27 = add i64 %26, %21
  store i64 %27, ptr %25, align 8, !tbaa !8
  br label %28

28:                                               ; preds = %20
  %29 = load i32, ptr %8, align 4, !tbaa !16
  %30 = add nsw i32 %29, 1
  store i32 %30, ptr %8, align 4, !tbaa !16
  br label %16, !llvm.loop !18

31:                                               ; preds = %19
  call void @llvm.lifetime.end.p0(i64 8, ptr %7) #5
  ret void
}