; Function Attrs: mustprogress nofree norecurse nosync nounwind memory(argmem: readwrite) uwtable
define void @_ZN5boost4urls6detail8url_impl8set_sizeEim(ptr nocapture noundef nonnull align 8 dereferenceable(171) %0, i32 noundef %1, i64 noundef %2) local_unnamed_addr #3 align 2 {
  %4 = icmp eq i32 %1, 7
  br i1 %4, label %._crit_edge, label %5

5:                                                ; preds = %3
  %6 = add nsw i32 %1, 1
  %7 = icmp eq i32 %6, -1
  %8 = getelementptr inbounds nuw i8, ptr %0, i64 8
  br i1 %7, label %_ZNK5boost4urls6detail8url_impl3lenEi.exit.thread13, label %_ZNK5boost4urls6detail8url_impl6offsetEi.exit.i

_ZNK5boost4urls6detail8url_impl3lenEi.exit.thread13: ; preds = %5
  %9 = sext i32 %1 to i64
  %10 = getelementptr inbounds [8 x i64], ptr %8, i64 0, i64 %9
  %11 = load i64, ptr %10, align 8, !tbaa !13
  %12 = add i64 %11, %2
  br label %.lr.ph

_ZNK5boost4urls6detail8url_impl6offsetEi.exit.i:  ; preds = %5
  %13 = sext i32 %6 to i64
  %14 = getelementptr inbounds [8 x i64], ptr %8, i64 0, i64 %13
  %15 = load i64, ptr %14, align 8, !tbaa !13
  %16 = icmp eq i32 %1, -1
  br i1 %16, label %_ZNK5boost4urls6detail8url_impl3lenEi.exit.thread11, label %_ZNK5boost4urls6detail8url_impl3lenEi.exit

_ZNK5boost4urls6detail8url_impl3lenEi.exit.thread11: ; preds = %_ZNK5boost4urls6detail8url_impl6offsetEi.exit.i
  %17 = sub i64 %2, %15
  br label %.lr.ph

_ZNK5boost4urls6detail8url_impl3lenEi.exit:       ; preds = %_ZNK5boost4urls6detail8url_impl6offsetEi.exit.i
  %18 = getelementptr inbounds nuw i8, ptr %0, i64 8
  %19 = sext i32 %1 to i64
  %20 = getelementptr inbounds [8 x i64], ptr %18, i64 0, i64 %19
  %21 = load i64, ptr %20, align 8, !tbaa !13
  %.neg = sub i64 %21, %15
  %22 = add i64 %.neg, %2
  %23 = icmp slt i32 %1, 7
  br i1 %23, label %.lr.ph, label %._crit_edge

.lr.ph:                                           ; preds = %_ZNK5boost4urls6detail8url_impl3lenEi.exit.thread13, %_ZNK5boost4urls6detail8url_impl3lenEi.exit.thread11, %_ZNK5boost4urls6detail8url_impl3lenEi.exit
  %24 = phi i64 [ %17, %_ZNK5boost4urls6detail8url_impl3lenEi.exit.thread11 ], [ %22, %_ZNK5boost4urls6detail8url_impl3lenEi.exit ], [ %12, %_ZNK5boost4urls6detail8url_impl3lenEi.exit.thread13 ]
  %25 = getelementptr inbounds nuw i8, ptr %0, i64 8
  %26 = sext i32 %1 to i64
  br label %27

._crit_edge:                                      ; preds = %27, %3, %_ZNK5boost4urls6detail8url_impl3lenEi.exit
  ret void

27:                                               ; preds = %.lr.ph, %27
  %indvars.iv = phi i64 [ %26, %.lr.ph ], [ %indvars.iv.next, %27 ]
  %indvars.iv.next = add nsw i64 %indvars.iv, 1
  %28 = getelementptr inbounds [8 x i64], ptr %25, i64 0, i64 %indvars.iv.next
  %29 = load i64, ptr %28, align 8, !tbaa !13
  %30 = add i64 %24, %29
  store i64 %30, ptr %28, align 8, !tbaa !13
  %exitcond.not = icmp eq i64 %indvars.iv.next, 7
  br i1 %exitcond.not, label %._crit_edge, label %27, !llvm.loop !14
}